; Function Attrs: mustprogress nofree norecurse nosync nounwind willreturn memory(read, inaccessiblemem: none) uwtable
define noundef range(i64 -131070, 131071) i64 @_ZN32pxrInternal_v0_24__pxrReserved__8distanceERKNS_21SdfPathAncestorsRange8iteratorES3_(ptr nocapture noundef nonnull readonly align 4 dereferenceable(8) %0, ptr nocapture noundef nonnull readonly align 4 dereferenceable(8) %1) local_unnamed_addr #8 personality ptr @__gxx_personality_v0 {
  %3 = load i32, ptr %0, align 4
  %.not.i = icmp eq i32 %3, 0
  br i1 %.not.i, label %16, label %4

4:                                                ; preds = %2
  %5 = and i32 %3, 255
  %6 = lshr i32 %3, 8
  %7 = zext nneg i32 %5 to i64
  %8 = getelementptr inbounds [257 x ptr], ptr @_ZN32pxrInternal_v0_24__pxrReserved__8Sdf_PoolINS_15Sdf_PathPrimTagELj24ELj8ELj16384EE13_regionStartsE, i64 0, i64 %7
  %9 = load ptr, ptr %8, align 8
  %10 = mul nuw nsw i32 %6, 24
  %11 = zext nneg i32 %10 to i64
  %12 = getelementptr inbounds i8, ptr %9, i64 %11
  %13 = getelementptr inbounds nuw i8, ptr %12, i64 12
  %14 = load i16, ptr %13, align 4
  %15 = zext i16 %14 to i64
  br label %16

16:                                               ; preds = %4, %2
  %17 = phi i64 [ %15, %4 ], [ 0, %2 ]
  %18 = getelementptr inbounds nuw i8, ptr %0, i64 4
  %19 = load i32, ptr %18, align 4
  %.not2.i = icmp eq i32 %19, 0
  br i1 %.not2.i, label %_ZNK32pxrInternal_v0_24__pxrReserved__7SdfPath19GetPathElementCountEv.exit, label %20

20:                                               ; preds = %16
  %21 = and i32 %19, 255
  %22 = lshr i32 %19, 8
  %23 = zext nneg i32 %21 to i64
  %24 = getelementptr inbounds [257 x ptr], ptr @_ZN32pxrInternal_v0_24__pxrReserved__8Sdf_PoolINS_15Sdf_PathPropTagELj24ELj8ELj16384EE13_regionStartsE, i64 0, i64 %23
  %25 = load ptr, ptr %24, align 8
  %26 = mul nuw nsw i32 %22, 24
  %27 = zext nneg i32 %26 to i64
  %28 = getelementptr inbounds i8, ptr %25, i64 %27
  %29 = getelementptr inbounds nuw i8, ptr %28, i64 12
  %30 = load i16, ptr %29, align 4
  %31 = zext i16 %30 to i64
  br label %_ZNK32pxrInternal_v0_24__pxrReserved__7SdfPath19GetPathElementCountEv.exit

_ZNK32pxrInternal_v0_24__pxrReserved__7SdfPath19GetPathElementCountEv.exit: ; preds = %16, %20
  %32 = phi i64 [ %31, %20 ], [ 0, %16 ]
  %33 = load i32, ptr %1, align 4
  %.not.i2 = icmp eq i32 %33, 0
  br i1 %.not.i2, label %46, label %34

34:                                               ; preds = %_ZNK32pxrInternal_v0_24__pxrReserved__7SdfPath19GetPathElementCountEv.exit
  %35 = and i32 %33, 255
  %36 = lshr i32 %33, 8
  %37 = zext nneg i32 %35 to i64
  %38 = getelementptr inbounds [257 x ptr], ptr @_ZN32pxrInternal_v0_24__pxrReserved__8Sdf_PoolINS_15Sdf_PathPrimTagELj24ELj8ELj16384EE13_regionStartsE, i64 0, i64 %37
  %39 = load ptr, ptr %38, align 8
  %40 = mul nuw nsw i32 %36, 24
  %41 = zext nneg i32 %40 to i64
  %42 = getelementptr inbounds i8, ptr %39, i64 %41
  %43 = getelementptr inbounds nuw i8, ptr %42, i64 12
  %44 = load i16, ptr %43, align 4
  %45 = zext i16 %44 to i64
  br label %46

46:                                               ; preds = %34, %_ZNK32pxrInternal_v0_24__pxrReserved__7SdfPath19GetPathElementCountEv.exit
  %47 = phi i64 [ %45, %34 ], [ 0, %_ZNK32pxrInternal_v0_24__pxrReserved__7SdfPath19GetPathElementCountEv.exit ]
  %48 = getelementptr inbounds nuw i8, ptr %1, i64 4
  %49 = load i32, ptr %48, align 4
  %.not2.i3 = icmp eq i32 %49, 0
  br i1 %.not2.i3, label %_ZNK32pxrInternal_v0_24__pxrReserved__7SdfPath19GetPathElementCountEv.exit4, label %50

50:                                               ; preds = %46
  %51 = and i32 %49, 255
  %52 = lshr i32 %49, 8
  %53 = zext nneg i32 %51 to i64
  %54 = getelementptr inbounds [257 x ptr], ptr @_ZN32pxrInternal_v0_24__pxrReserved__8Sdf_PoolINS_15Sdf_PathPropTagELj24ELj8ELj16384EE13_regionStartsE, i64 0, i64 %53
  %55 = load ptr, ptr %54, align 8
  %56 = mul nuw nsw i32 %52, 24
  %57 = zext nneg i32 %56 to i64
  %58 = getelementptr inbounds i8, ptr %55, i64 %57
  %59 = getelementptr inbounds nuw i8, ptr %58, i64 12
  %60 = load i16, ptr %59, align 4
  %61 = zext i16 %60 to i64
  br label %_ZNK32pxrInternal_v0_24__pxrReserved__7SdfPath19GetPathElementCountEv.exit4

_ZNK32pxrInternal_v0_24__pxrReserved__7SdfPath19GetPathElementCountEv.exit4: ; preds = %46, %50
  %62 = phi i64 [ %61, %50 ], [ 0, %46 ]
  %.neg6 = add nuw nsw i64 %32, %17
  %63 = add nuw nsw i64 %47, %62
  %64 = sub nsw i64 %.neg6, %63
  ret i64 %64
}